(lp0
(lp1
I7
aI4
aI3
aI9
aI5
aI1
aI6
aI8
aI2
aa(lp2
I1
aI6
aI2
aI4
aI8
aI7
aI3
aI9
aI5
aa(lp3
I9
aI5
aI8
aI6
aI3
aI2
aI7
aI1
aI4
aa(lp4
I2
aI1
aI9
aI8
aI7
aI3
aI5
aI4
aI6
aa(lp5
I3
aI7
aI4
aI5
aI6
aI9
aI1
aI2
aI8
aa(lp6
I5
aI8
aI6
aI1
aI2
aI4
aI9
aI7
aI3
aa(lp7
I4
aI9
aI5
aI2
aI1
aI6
aI8
aI3
aI7
aa(lp8
I8
aI2
aI7
aI3
aI9
aI5
aI4
aI6
aI1
aa(lp9
I6
aI3
aI1
aI7
aI4
aI8
aI2
aI5
aI9
aa.